ARM GAS  C:\Users\embedded\AppData\Local\Temp\ccRINGw5.s 			page 1


   1              		.syntax unified
   2              		.cpu arm7tdmi
   3              		.fpu softvfp
   4              		.eabi_attribute 20, 1
   5              		.eabi_attribute 21, 1
   6              		.eabi_attribute 23, 3
   7              		.eabi_attribute 24, 1
   8              		.eabi_attribute 25, 1
   9              		.eabi_attribute 26, 1
  10              		.eabi_attribute 30, 4
  11              		.eabi_attribute 34, 0
  12              		.eabi_attribute 18, 4
  13              		.thumb
  14              		.syntax unified
  15              		.file	"main.c"
  16              		.text
  17              	.Ltext0:
  18              		.cfi_sections	.debug_frame
  19              		.global	__aeabi_lmul
  20              		.global	__aeabi_uldivmod
  21              		.section	.text.startup,"ax",%progbits
  22              		.align	1
  23              		.global	main
  24              		.code	16
  25              		.thumb_func
  26              		.type	main, %function
  27              	main:
  28              	.LFB2:
  29              		.file 1 "main.c"
   1:main.c        **** /*************************************************************************************
   2:main.c        ****  *
   3:main.c        ****  * @Description:
   4:main.c        ****  * Program przykładowy - odpowiednik "Hello World" dla systemów wbudowanych
   5:main.c        ****  * Rekomendujemy wkopiowywanie do niniejszego projektu nowych funkcjonalności
   6:main.c        ****  *
   7:main.c        ****  *
   8:main.c        ****  * UWAGA! Po zmianie rozszerzenia na cpp program automatycznie będzie używać
   9:main.c        ****  * kompilatora g++. Oczywiście konieczne jest wprowadzenie odpowiednich zmian w
  10:main.c        ****  * pliku "makefile"
  11:main.c        ****  *
  12:main.c        ****  *
  13:main.c        ****  * Program przykładowy wykorzystuje Timer #0 i Timer #1 do "mrugania" diodami
  14:main.c        ****  * Dioda P1.16 jest zapalona i gaszona, a czas pomiędzy tymi zdarzeniami
  15:main.c        ****  * odmierzany jest przez Timer #0.
  16:main.c        ****  * Program aktywnie oczekuje na upłynięcie odmierzanego czasu (1s)
  17:main.c        ****  *
  18:main.c        ****  * Druga z diod P1.17 jest gaszona i zapalana w takt przerwań generowanych
  19:main.c        ****  * przez timer #1, z okresem 500 ms i wypełnieniem 20%.
  20:main.c        ****  * Procedura obsługi przerwań zdefiniowana jest w innym pliku (irq/irq_handler.c)
  21:main.c        ****  * Sama procedura MUSI być oznaczona dla kompilatora jako procedura obsługi 
  22:main.c        ****  * przerwania odpowiedniego typu. W przykładzie jest to przerwanie wektoryzowane.
  23:main.c        ****  * Odpowiednia deklaracja znajduje się w pliku (irq/irq_handler.h)
  24:main.c        ****  * 
  25:main.c        ****  * Prócz "mrugania" diodami program wypisuje na konsoli powitalny tekst.
  26:main.c        ****  * 
  27:main.c        ****  * @Authors: Michał Morawski,
  28:main.c        ****  *           Daniel Arendt, 
ARM GAS  C:\Users\embedded\AppData\Local\Temp\ccRINGw5.s 			page 2


  29:main.c        ****  *           Przemysław Ignaciuk,
  30:main.c        ****  *           Marcin Kwapisz
  31:main.c        ****  *
  32:main.c        ****  * @Change log:
  33:main.c        ****  *           2016.12.01: Wersja oryginalna.
  34:main.c        ****  *
  35:main.c        ****  ******************************************************************************/
  36:main.c        **** 
  37:main.c        **** #include "general.h"
  38:main.c        **** #include <lpc2xxx.h>
  39:main.c        **** #include <printf_P.h>
  40:main.c        **** #include <printf_init.h>
  41:main.c        **** #include <consol.h>
  42:main.c        **** #include <config.h>
  43:main.c        **** #include "irq/irq_handler.h"
  44:main.c        **** #include "timer.h"
  45:main.c        **** #include "VIC.h"
  46:main.c        **** 
  47:main.c        **** #include "Common_Def.h"
  48:main.c        **** 
  49:main.c        **** 
  50:main.c        **** 
  51:main.c        **** 
  52:main.c        **** /************************************************************************
  53:main.c        ****  * @Description: opóźnienie wyrażone w liczbie sekund
  54:main.c        ****  * @Parameter:
  55:main.c        ****  *    [in] seconds: liczba sekund opĂłĹşnienia
  56:main.c        ****  * @Returns: Nic
  57:main.c        ****  * @Side effects:
  58:main.c        ****  *    przeprogramowany Timer #0
  59:main.c        ****  *************************************************************************/
  60:main.c        **** static void sdelay (tU32 seconds)
  61:main.c        **** {
  62:main.c        **** 	T0TCR = TIMER_RESET;                    //Zatrzymaj i zresetuj
  63:main.c        ****     T0PR  = PERIPHERAL_CLOCK-1;             //jednostka w preskalerze
  64:main.c        ****     T0MR0 = seconds;
  65:main.c        ****     T0IR  = TIMER_ALL_INT;                  //Resetowanie flag przerwaĹ„
  66:main.c        ****     T0MCR = MR0_S;                          //Licz do wartości w MR0 i zatrzymaj się
  67:main.c        ****     T0TCR = TIMER_RUN;                      //Uruchom timer
  68:main.c        **** 
  69:main.c        ****     // sprawdź czy timer działa
  70:main.c        ****     // nie ma wpisanego ogranicznika liczby pętli, ze względu na charakter procedury
  71:main.c        ****     // ale to wyjątek od reguły!
  72:main.c        ****     while (T0TCR & TIMER_RUN)
  73:main.c        ****     {
  74:main.c        ****     }
  75:main.c        **** }
  76:main.c        **** 
  77:main.c        **** /************************************************************************
  78:main.c        ****  * @Description: uruchomienie obsługi przerwań
  79:main.c        ****  * @Parameter:
  80:main.c        ****  *    [in] period    : okres generatora przerwań
  81:main.c        ****  *    [in] duty_cycle: wypełnienie w %
  82:main.c        ****  * @Returns: Nic
  83:main.c        ****  * @Side effects:
  84:main.c        ****  *    przeprogramowany timer #1
  85:main.c        ****  *************************************************************************/
ARM GAS  C:\Users\embedded\AppData\Local\Temp\ccRINGw5.s 			page 3


  86:main.c        **** static void init_irq (tU32 period, tU8 duty_cycle)
  87:main.c        **** {
  88:main.c        **** 	//Zainicjuj VIC dla przerwań od Timera #1
  89:main.c        ****     VICIntSelect &= ~TIMER_1_IRQ;           //Przerwanie od Timera #1 przypisane do IRQ (nie do FIQ
  90:main.c        ****     VICVectAddr5  = (tU32)IRQ_Test;         //adres procedury przerwania
  91:main.c        ****     VICVectCntl5  = VIC_ENABLE_SLOT | TIMER_1_IRQ_NO;
  92:main.c        ****     VICIntEnable  = TIMER_1_IRQ;            // Przypisanie i odblokowanie slotu w VIC od Timera #1
  93:main.c        ****   
  94:main.c        ****     T1TCR = TIMER_RESET;                    //Zatrzymaj i zresetuj
  95:main.c        ****     T1PR  = 0;                              //Preskaler nieużywany
  96:main.c        ****     T1MR0 = ((tU64)period)*((tU64)PERIPHERAL_CLOCK)/1000;
  97:main.c        ****     T1MR1 = (tU64)T1MR0 * duty_cycle / 100; //Wypełnienie
  98:main.c        ****     T1IR  = TIMER_ALL_INT;                  //Resetowanie flag przerwań
  99:main.c        ****     T1MCR = MR0_I | MR1_I | MR0_R;          //Generuj okresowe przerwania dla MR0 i dodatkowo dla M
 100:main.c        ****     T1TCR = TIMER_RUN;                      //Uruchom timer
 101:main.c        **** }
 102:main.c        **** 
 103:main.c        **** int main(void)
 104:main.c        **** {
  30              		.loc 1 104 0
  31              		.cfi_startproc
  32              		@ Function supports interworking.
  33              		@ args = 0, pretend = 0, frame = 0
  34              		@ frame_needed = 0, uses_anonymous_args = 0
  35 0000 70B5     		push	{r4, r5, r6, lr}
  36              	.LCFI0:
  37              		.cfi_def_cfa_offset 16
  38              		.cfi_offset 4, -16
  39              		.cfi_offset 5, -12
  40              		.cfi_offset 6, -8
  41              		.cfi_offset 14, -4
 105:main.c        **** 	//uruchomienie 'simple printf'
 106:main.c        ****     printf_init();
  42              		.loc 1 106 0
  43 0002 FFF7FEFF 		bl	printf_init
  44              	.LVL0:
 107:main.c        **** 
 108:main.c        ****     //powitanie
 109:main.c        ****     simplePrintf("\n\n\n\n");
  45              		.loc 1 109 0
  46 0006 3A48     		ldr	r0, .L9
  47 0008 FFF7FEFF 		bl	simplePrintf
  48              	.LVL1:
 110:main.c        ****     simplePrintf("\n*********************************************************");
  49              		.loc 1 110 0
  50 000c 394C     		ldr	r4, .L9+4
  51 000e 2000     		movs	r0, r4
  52 0010 FFF7FEFF 		bl	simplePrintf
  53              	.LVL2:
 111:main.c        ****     simplePrintf("\n*");
  54              		.loc 1 111 0
  55 0014 384D     		ldr	r5, .L9+8
  56 0016 2800     		movs	r0, r5
  57 0018 FFF7FEFF 		bl	simplePrintf
  58              	.LVL3:
 112:main.c        ****     simplePrintf("\n* Systemy Wbudowane");
  59              		.loc 1 112 0
ARM GAS  C:\Users\embedded\AppData\Local\Temp\ccRINGw5.s 			page 4


  60 001c 3748     		ldr	r0, .L9+12
  61 001e FFF7FEFF 		bl	simplePrintf
  62              	.LVL4:
 113:main.c        ****     simplePrintf("\n* Wydzial FTIMS");
  63              		.loc 1 113 0
  64 0022 3748     		ldr	r0, .L9+16
  65 0024 FFF7FEFF 		bl	simplePrintf
  66              	.LVL5:
 114:main.c        ****     simplePrintf("\n* Moj pierwszy program");
  67              		.loc 1 114 0
  68 0028 3648     		ldr	r0, .L9+20
  69 002a FFF7FEFF 		bl	simplePrintf
  70              	.LVL6:
 115:main.c        ****     simplePrintf("\n*");
  71              		.loc 1 115 0
  72 002e 2800     		movs	r0, r5
  73 0030 FFF7FEFF 		bl	simplePrintf
  74              	.LVL7:
 116:main.c        ****     simplePrintf("\n*********************************************************");
  75              		.loc 1 116 0
  76 0034 2000     		movs	r0, r4
  77 0036 FFF7FEFF 		bl	simplePrintf
  78              	.LVL8:
 117:main.c        **** 
 118:main.c        ****     /*********************************************************************
 119:main.c        ****      * Ta część inicjuje działanie programy
 120:main.c        ****      *********************************************************************/
 121:main.c        ****     // uruchomienie GPIO na nodze P1.16 i P1.17.
 122:main.c        ****     PINSEL2 &= ~(1 << 3);
  79              		.loc 1 122 0
  80 003a 0821     		movs	r1, #8
 123:main.c        ****     // Kierunek out na nodze P1.16
 124:main.c        ****     IODIR1 |= DIODA_PRAWA; //(1 << 16);
  81              		.loc 1 124 0
  82 003c 8020     		movs	r0, #128
 122:main.c        ****     // Kierunek out na nodze P1.16
  83              		.loc 1 122 0
  84 003e 324A     		ldr	r2, .L9+24
  85 0040 1368     		ldr	r3, [r2]
  86 0042 8B43     		bics	r3, r1
  87 0044 1360     		str	r3, [r2]
  88              		.loc 1 124 0
  89 0046 314B     		ldr	r3, .L9+28
  90 0048 1968     		ldr	r1, [r3]
  91 004a 8002     		lsls	r0, r0, #10
  92 004c 0143     		orrs	r1, r0
  93 004e 1960     		str	r1, [r3]
 125:main.c        ****     // Kierunek out na nodze P1.17
 126:main.c        ****     IODIR1 |= DIODA_PRAWA; //(1 << 17);
  94              		.loc 1 126 0
  95 0050 1A68     		ldr	r2, [r3]
  96 0052 0243     		orrs	r2, r0
  97 0054 1A60     		str	r2, [r3]
  98              	.LVL9:
  99              	.LBB6:
 100              	.LBB7:
  89:main.c        ****     VICVectAddr5  = (tU32)IRQ_Test;         //adres procedury przerwania
ARM GAS  C:\Users\embedded\AppData\Local\Temp\ccRINGw5.s 			page 5


 101              		.loc 1 89 0
 102 0056 2022     		movs	r2, #32
 103 0058 2D49     		ldr	r1, .L9+32
 104 005a 0B68     		ldr	r3, [r1]
 105 005c 9343     		bics	r3, r2
 106 005e 0B60     		str	r3, [r1]
  90:main.c        ****     VICVectCntl5  = VIC_ENABLE_SLOT | TIMER_1_IRQ_NO;
 107              		.loc 1 90 0
 108 0060 2C4B     		ldr	r3, .L9+36
 109 0062 2D49     		ldr	r1, .L9+40
 110 0064 1960     		str	r1, [r3]
  91:main.c        ****     VICIntEnable  = TIMER_1_IRQ;            // Przypisanie i odblokowanie slotu w VIC od Timera #1
 111              		.loc 1 91 0
 112 0066 2521     		movs	r1, #37
 113 0068 2C4B     		ldr	r3, .L9+44
 114 006a 1960     		str	r1, [r3]
  92:main.c        ****   
 115              		.loc 1 92 0
 116 006c 2C4B     		ldr	r3, .L9+48
 117 006e 1A60     		str	r2, [r3]
  94:main.c        ****     T1PR  = 0;                              //Preskaler nieużywany
 118              		.loc 1 94 0
 119 0070 0223     		movs	r3, #2
  95:main.c        ****     T1MR0 = ((tU64)period)*((tU64)PERIPHERAL_CLOCK)/1000;
 120              		.loc 1 95 0
 121 0072 0024     		movs	r4, #0
  96:main.c        ****     T1MR1 = (tU64)T1MR0 * duty_cycle / 100; //Wypełnienie
 122              		.loc 1 96 0
 123 0074 B422     		movs	r2, #180
  94:main.c        ****     T1PR  = 0;                              //Preskaler nieużywany
 124              		.loc 1 94 0
 125 0076 2B4E     		ldr	r6, .L9+52
 126 0078 3360     		str	r3, [r6]
  95:main.c        ****     T1MR0 = ((tU64)period)*((tU64)PERIPHERAL_CLOCK)/1000;
 127              		.loc 1 95 0
 128 007a 2B4B     		ldr	r3, .L9+56
 129 007c 1C60     		str	r4, [r3]
  96:main.c        ****     T1MR1 = (tU64)T1MR0 * duty_cycle / 100; //Wypełnienie
 130              		.loc 1 96 0
 131 007e 2B4B     		ldr	r3, .L9+60
 132 0080 D203     		lsls	r2, r2, #15
 133 0082 1A60     		str	r2, [r3]
  97:main.c        ****     T1IR  = TIMER_ALL_INT;                  //Resetowanie flag przerwań
 134              		.loc 1 97 0
 135 0084 2100     		movs	r1, r4
 136 0086 1868     		ldr	r0, [r3]
 137 0088 3222     		movs	r2, #50
 138 008a 0023     		movs	r3, #0
 139 008c FFF7FEFF 		bl	__aeabi_lmul
 140              	.LVL10:
 141 0090 6422     		movs	r2, #100
 142 0092 0023     		movs	r3, #0
 143 0094 FFF7FEFF 		bl	__aeabi_uldivmod
 144              	.LVL11:
  98:main.c        ****     T1MCR = MR0_I | MR1_I | MR0_R;          //Generuj okresowe przerwania dla MR0 i dodatkowo dla M
 145              		.loc 1 98 0
 146 0098 FF22     		movs	r2, #255
ARM GAS  C:\Users\embedded\AppData\Local\Temp\ccRINGw5.s 			page 6


 100:main.c        **** }
 147              		.loc 1 100 0
 148 009a 0125     		movs	r5, #1
  97:main.c        ****     T1IR  = TIMER_ALL_INT;                  //Resetowanie flag przerwań
 149              		.loc 1 97 0
 150 009c 244B     		ldr	r3, .L9+64
 151 009e 1860     		str	r0, [r3]
  98:main.c        ****     T1MCR = MR0_I | MR1_I | MR0_R;          //Generuj okresowe przerwania dla MR0 i dodatkowo dla M
 152              		.loc 1 98 0
 153 00a0 244B     		ldr	r3, .L9+68
 154 00a2 1A60     		str	r2, [r3]
  99:main.c        ****     T1TCR = TIMER_RUN;                      //Uruchom timer
 155              		.loc 1 99 0
 156 00a4 244B     		ldr	r3, .L9+72
 157 00a6 F43A     		subs	r2, r2, #244
 158 00a8 1A60     		str	r2, [r3]
 100:main.c        **** }
 159              		.loc 1 100 0
 160 00aa 3560     		str	r5, [r6]
 161 00ac 8026     		movs	r6, #128
 162 00ae 7602     		lsls	r6, r6, #9
 163              	.L5:
 164              	.LVL12:
 165              	.LBE7:
 166              	.LBE6:
 127:main.c        ****     // Uruchomienie przerwań co 1/2 s.
 128:main.c        ****     init_irq(100, 50);
 129:main.c        **** 
 130:main.c        ****     /**********************************************************************
 131:main.c        ****      * Ta część jest nieskończoną pętlą realizującą działania programu
 132:main.c        ****      * Należy jednak pamiętać, że część jego funkcjonalności realizowana
 133:main.c        ****      * jest za pomocą przerwań
 134:main.c        ****      **********************************************************************/
 135:main.c        ****     // Aktywne "mruganie" diodą
 136:main.c        ****     tBool dioda_swieci = FALSE;
 137:main.c        ****     while (TRUE)
 138:main.c        ****     {
 139:main.c        ****     	if (dioda_swieci)
 167              		.loc 1 139 0
 168 00b0 002C     		cmp	r4, #0
 169 00b2 03D0     		beq	.L2
 140:main.c        ****         {
 141:main.c        ****     		IOSET1 = DIODA_LEWA; // (1 << 16);
 170              		.loc 1 141 0
 171 00b4 214B     		ldr	r3, .L9+76
 142:main.c        ****     		simplePrintf("Nie swieci\n");
 172              		.loc 1 142 0
 173 00b6 2248     		ldr	r0, .L9+80
 141:main.c        ****     		simplePrintf("Nie swieci\n");
 174              		.loc 1 141 0
 175 00b8 1E60     		str	r6, [r3]
 176 00ba 02E0     		b	.L7
 177              	.L2:
 178              	.LVL13:
 143:main.c        ****         }
 144:main.c        ****         else
 145:main.c        ****         {
ARM GAS  C:\Users\embedded\AppData\Local\Temp\ccRINGw5.s 			page 7


 146:main.c        ****         	IOCLR1 = DIODA_LEWA; //(1 << 16);
 179              		.loc 1 146 0
 180 00bc 214B     		ldr	r3, .L9+84
 147:main.c        ****         	simplePrintf("Swieci\n");
 181              		.loc 1 147 0
 182 00be 2248     		ldr	r0, .L9+88
 146:main.c        ****         	simplePrintf("Swieci\n");
 183              		.loc 1 146 0
 184 00c0 1E60     		str	r6, [r3]
 185              	.LVL14:
 186              	.L7:
 187              		.loc 1 147 0
 188 00c2 FFF7FEFF 		bl	simplePrintf
 189              	.LVL15:
 190              	.LBB8:
 191              	.LBB9:
  62:main.c        ****     T0PR  = PERIPHERAL_CLOCK-1;             //jednostka w preskalerze
 192              		.loc 1 62 0
 193 00c6 0222     		movs	r2, #2
 194 00c8 204B     		ldr	r3, .L9+92
  63:main.c        ****     T0MR0 = seconds;
 195              		.loc 1 63 0
 196 00ca 2149     		ldr	r1, .L9+96
  62:main.c        ****     T0PR  = PERIPHERAL_CLOCK-1;             //jednostka w preskalerze
 197              		.loc 1 62 0
 198 00cc 1A60     		str	r2, [r3]
  63:main.c        ****     T0MR0 = seconds;
 199              		.loc 1 63 0
 200 00ce 214A     		ldr	r2, .L9+100
 201 00d0 1160     		str	r1, [r2]
  65:main.c        ****     T0MCR = MR0_S;                          //Licz do wartości w MR0 i zatrzymaj się
 202              		.loc 1 65 0
 203 00d2 FF21     		movs	r1, #255
  64:main.c        ****     T0IR  = TIMER_ALL_INT;                  //Resetowanie flag przerwaĹ„
 204              		.loc 1 64 0
 205 00d4 204A     		ldr	r2, .L9+104
 206 00d6 1560     		str	r5, [r2]
  65:main.c        ****     T0MCR = MR0_S;                          //Licz do wartości w MR0 i zatrzymaj się
 207              		.loc 1 65 0
 208 00d8 204A     		ldr	r2, .L9+108
 209 00da 1160     		str	r1, [r2]
  66:main.c        ****     T0TCR = TIMER_RUN;                      //Uruchom timer
 210              		.loc 1 66 0
 211 00dc 204A     		ldr	r2, .L9+112
 212 00de FB39     		subs	r1, r1, #251
 213 00e0 1160     		str	r1, [r2]
  67:main.c        **** 
 214              		.loc 1 67 0
 215 00e2 1D60     		str	r5, [r3]
 216 00e4 6C40     		eors	r4, r5
 217              	.LVL16:
 218              	.L4:
  72:main.c        ****     {
 219              		.loc 1 72 0
 220 00e6 1A68     		ldr	r2, [r3]
 221 00e8 2A42     		tst	r2, r5
 222 00ea FCD1     		bne	.L4
ARM GAS  C:\Users\embedded\AppData\Local\Temp\ccRINGw5.s 			page 8


 223 00ec E0E7     		b	.L5
 224              	.L10:
 225 00ee C046     		.align	2
 226              	.L9:
 227 00f0 00000000 		.word	.LC0
 228 00f4 05000000 		.word	.LC2
 229 00f8 40000000 		.word	.LC4
 230 00fc 43000000 		.word	.LC6
 231 0100 58000000 		.word	.LC8
 232 0104 69000000 		.word	.LC10
 233 0108 14C002E0 		.word	-536690668
 234 010c 188002E0 		.word	-536707048
 235 0110 0CF0FFFF 		.word	-4084
 236 0114 14F1FFFF 		.word	-3820
 237 0118 00000000 		.word	IRQ_Test
 238 011c 14F2FFFF 		.word	-3564
 239 0120 10F0FFFF 		.word	-4080
 240 0124 048000E0 		.word	-536838140
 241 0128 0C8000E0 		.word	-536838132
 242 012c 188000E0 		.word	-536838120
 243 0130 1C8000E0 		.word	-536838116
 244 0134 008000E0 		.word	-536838144
 245 0138 148000E0 		.word	-536838124
 246 013c 148002E0 		.word	-536707052
 247 0140 81000000 		.word	.LC13
 248 0144 1C8002E0 		.word	-536707044
 249 0148 8D000000 		.word	.LC15
 250 014c 044000E0 		.word	-536854524
 251 0150 FFFF8303 		.word	58982399
 252 0154 0C4000E0 		.word	-536854516
 253 0158 184000E0 		.word	-536854504
 254 015c 004000E0 		.word	-536854528
 255 0160 144000E0 		.word	-536854508
 256              	.LBE9:
 257              	.LBE8:
 258              		.cfi_endproc
 259              	.LFE2:
 260              		.size	main, .-main
 261              		.section	.rodata.str1.1,"aMS",%progbits,1
 262              	.LC0:
 263 0000 0A0A0A0A 		.ascii	"\012\012\012\012\000"
 263      00
 264              	.LC2:
 265 0005 0A2A2A2A 		.ascii	"\012***********************************************"
 265      2A2A2A2A 
 265      2A2A2A2A 
 265      2A2A2A2A 
 265      2A2A2A2A 
 266 0035 2A2A2A2A 		.ascii	"**********\000"
 266      2A2A2A2A 
 266      2A2A00
 267              	.LC4:
 268 0040 0A2A00   		.ascii	"\012*\000"
 269              	.LC6:
 270 0043 0A2A2053 		.ascii	"\012* Systemy Wbudowane\000"
 270      79737465 
 270      6D792057 
ARM GAS  C:\Users\embedded\AppData\Local\Temp\ccRINGw5.s 			page 9


 270      6275646F 
 270      77616E65 
 271              	.LC8:
 272 0058 0A2A2057 		.ascii	"\012* Wydzial FTIMS\000"
 272      79647A69 
 272      616C2046 
 272      54494D53 
 272      00
 273              	.LC10:
 274 0069 0A2A204D 		.ascii	"\012* Moj pierwszy program\000"
 274      6F6A2070 
 274      69657277 
 274      737A7920 
 274      70726F67 
 275              	.LC13:
 276 0081 4E696520 		.ascii	"Nie swieci\012\000"
 276      73776965 
 276      63690A00 
 277              	.LC15:
 278 008d 53776965 		.ascii	"Swieci\012\000"
 278      63690A00 
 279              		.text
 280              	.Letext0:
 281              		.file 2 "general.h"
 282              		.file 3 "./startup/printf_init.h"
 283              		.file 4 "./startup/consol.h"